Certificate:
    Data:
        Version: 3 (0x2)
        Serial Number: 2 (0x2)
    Signature Algorithm: sha1WithRSAEncryption
        Issuer: C=US, ST=CA, L=SanFrancisco, O=Fort-Funston, OU=changeme, CN=changeme/name=changeme/emailAddress=mail@host.domain
        Validity
            Not Before: Jun 21 20:40:57 2016 GMT
            Not After : Jun 19 20:40:57 2026 GMT
        Subject: C=US, ST=CA, L=SanFrancisco, O=Fort-Funston, OU=changeme, CN=client/name=changeme/emailAddress=mail@host.domain
        Subject Public Key Info:
            Public Key Algorithm: rsaEncryption
                Public-Key: (2048 bit)
                Modulus:
                    00:c4:06:2b:41:46:00:11:ca:42:37:c8:08:e3:31:
                    1c:fc:68:98:3c:db:48:b6:a7:6d:d1:4d:9e:a6:1f:
                    0d:37:d7:c9:6d:df:95:72:90:4c:9a:d0:61:e2:11:
                    40:82:3d:45:4b:7e:ac:4c:5b:50:cf:31:61:26:7d:
                    16:ba:08:da:db:af:9e:fa:b8:ee:88:8e:68:68:d8:
                    af:8f:40:d8:46:f9:49:6b:f8:59:69:6e:8a:2f:f3:
                    56:6b:1b:4f:a2:e0:50:90:6d:51:38:b5:fa:4f:bd:
                    ce:d5:46:fd:9a:2a:8f:98:2f:3c:4d:e3:3a:9e:7e:
                    46:9c:24:01:65:91:e1:20:bd:15:cf:bd:f8:bc:49:
                    39:c1:40:e7:63:2e:27:b2:eb:1b:5c:48:83:a0:73:
                    55:df:fc:2b:9b:46:75:90:92:05:db:f5:ee:b3:36:
                    96:25:22:72:93:48:ca:79:bd:8d:3b:11:a8:5c:a8:
                    21:b3:1a:80:9a:fe:2b:06:90:51:2b:c3:c6:7d:95:
                    39:d5:c4:c0:48:76:19:1a:68:bd:ec:6b:7b:4b:e3:
                    31:ab:95:5b:7e:ed:e1:2b:30:a6:ba:70:b6:88:12:
                    dc:e3:53:e4:21:d2:dc:f5:78:8b:f2:41:73:47:8d:
                    75:4f:c4:40:b9:17:fa:37:8d:a6:81:f1:02:de:ad:
                    c9:37
                Exponent: 65537 (0x10001)
        X509v3 extensions:
            X509v3 Basic Constraints: 
                CA:FALSE
            Netscape Comment: 
                Easy-RSA Generated Certificate
            X509v3 Subject Key Identifier: 
                96:43:6F:58:A0:CB:00:69:35:C7:A4:6F:53:BE:98:31:10:5C:73:43
            X509v3 Authority Key Identifier: 
                keyid:9B:8B:AC:2D:C0:C9:DE:E8:F1:65:0E:52:2A:8C:1E:F5:A1:DB:E6:82
                DirName:/C=US/ST=CA/L=SanFrancisco/O=Fort-Funston/OU=changeme/CN=changeme/name=changeme/emailAddress=mail@host.domain
                serial:E9:26:61:3A:01:0A:AC:1B

            X509v3 Extended Key Usage: 
                TLS Web Client Authentication
            X509v3 Key Usage: 
                Digital Signature
    Signature Algorithm: sha1WithRSAEncryption
         b9:81:2d:a6:2a:6f:27:54:d9:2b:3b:46:07:cb:68:bf:cc:77:
         e4:86:73:9c:fd:fa:2c:30:54:28:09:3c:b9:ab:88:6d:76:15:
         08:2f:e0:82:d3:07:a6:26:d1:53:31:4f:44:aa:c9:b2:9d:47:
         17:59:d7:a2:89:cd:88:72:a8:6f:9f:c0:11:72:f2:77:79:41:
         46:d5:86:06:f5:7a:7b:ce:ae:2d:fe:13:4e:7f:68:58:ff:a9:
         aa:67:b1:66:88:8f:1b:ab:a3:86:2d:65:95:4f:81:93:69:6c:
         a8:5d:ab:cf:df:7f:ce:c1:e7:b5:97:63:dc:d1:8d:7c:1f:ec:
         e8:1a:aa:8e:aa:07:61:56:2b:2f:39:2d:ba:fd:26:dc:69:4b:
         93:8c:b4:7b:f5:0c:63:64:d1:68:eb:78:87:c9:92:74:59:79:
         26:df:01:a4:bf:ba:46:cf:e2:71:62:20:fa:34:05:b7:db:23:
         96:03:8f:05:a3:e6:1e:ba:7e:37:dd:dd:10:6d:cd:e6:e1:a9:
         44:ca:c5:27:cb:64:1f:17:f6:b7:97:f6:46:06:e6:4d:cf:67:
         63:1f:c8:cd:da:3d:e0:73:37:05:18:a8:b9:2b:e4:c9:22:85:
         e7:99:44:dd:2f:1b:a6:eb:22:43:d6:04:dc:92:83:b1:fa:01:
         26:07:37:ab
-----BEGIN CERTIFICATE-----
MIIFGjCCBAKgAwIBAgIBAjANBgkqhkiG9w0BAQUFADCBojELMAkGA1UEBhMCVVMx
CzAJBgNVBAgTAkNBMRUwEwYDVQQHEwxTYW5GcmFuY2lzY28xFTATBgNVBAoTDEZv
cnQtRnVuc3RvbjERMA8GA1UECxMIY2hhbmdlbWUxETAPBgNVBAMTCGNoYW5nZW1l
MREwDwYDVQQpEwhjaGFuZ2VtZTEfMB0GCSqGSIb3DQEJARYQbWFpbEBob3N0LmRv
bWFpbjAeFw0xNjA2MjEyMDQwNTdaFw0yNjA2MTkyMDQwNTdaMIGgMQswCQYDVQQG
EwJVUzELMAkGA1UECBMCQ0ExFTATBgNVBAcTDFNhbkZyYW5jaXNjbzEVMBMGA1UE
ChMMRm9ydC1GdW5zdG9uMREwDwYDVQQLEwhjaGFuZ2VtZTEPMA0GA1UEAxMGY2xp
ZW50MREwDwYDVQQpEwhjaGFuZ2VtZTEfMB0GCSqGSIb3DQEJARYQbWFpbEBob3N0
LmRvbWFpbjCCASIwDQYJKoZIhvcNAQEBBQADggEPADCCAQoCggEBAMQGK0FGABHK
QjfICOMxHPxomDzbSLanbdFNnqYfDTfXyW3flXKQTJrQYeIRQII9RUt+rExbUM8x
YSZ9FroI2tuvnvq47oiOaGjYr49A2Eb5SWv4WWluii/zVmsbT6LgUJBtUTi1+k+9
ztVG/Zoqj5gvPE3jOp5+RpwkAWWR4SC9Fc+9+LxJOcFA52MuJ7LrG1xIg6BzVd/8
K5tGdZCSBdv17rM2liUicpNIynm9jTsRqFyoIbMagJr+KwaQUSvDxn2VOdXEwEh2
GRpovexre0vjMauVW37t4SswprpwtogS3ONT5CHS3PV4i/JBc0eNdU/EQLkX+jeN
poHxAt6tyTcCAwEAAaOCAVkwggFVMAkGA1UdEwQCMAAwLQYJYIZIAYb4QgENBCAW
HkVhc3ktUlNBIEdlbmVyYXRlZCBDZXJ0aWZpY2F0ZTAdBgNVHQ4EFgQUlkNvWKDL
AGk1x6RvU76YMRBcc0MwgdcGA1UdIwSBzzCBzIAUm4usLcDJ3ujxZQ5SKowe9aHb
5oKhgaikgaUwgaIxCzAJBgNVBAYTAlVTMQswCQYDVQQIEwJDQTEVMBMGA1UEBxMM
U2FuRnJhbmNpc2NvMRUwEwYDVQQKEwxGb3J0LUZ1bnN0b24xETAPBgNVBAsTCGNo
YW5nZW1lMREwDwYDVQQDEwhjaGFuZ2VtZTERMA8GA1UEKRMIY2hhbmdlbWUxHzAd
BgkqhkiG9w0BCQEWEG1haWxAaG9zdC5kb21haW6CCQDpJmE6AQqsGzATBgNVHSUE
DDAKBggrBgEFBQcDAjALBgNVHQ8EBAMCB4AwDQYJKoZIhvcNAQEFBQADggEBALmB
LaYqbydU2Ss7RgfLaL/Md+SGc5z9+iwwVCgJPLmriG12FQgv4ILTB6Ym0VMxT0Sq
ybKdRxdZ16KJzYhyqG+fwBFy8nd5QUbVhgb1envOri3+E05/aFj/qapnsWaIjxur
o4YtZZVPgZNpbKhdq8/ff87B57WXY9zRjXwf7Ogaqo6qB2FWKy85Lbr9JtxpS5OM
tHv1DGNk0WjreIfJknRZeSbfAaS/ukbP4nFiIPo0BbfbI5YDjwWj5h66fjfd3RBt
zebhqUTKxSfLZB8X9reX9kYG5k3PZ2MfyM3aPeBzNwUYqLkr5MkiheeZRN0vG6br
IkPWBNySg7H6ASYHN6s=
-----END CERTIFICATE-----
