Certificate:
    Data:
        Version: 3 (0x2)
        Serial Number: 1 (0x1)
    Signature Algorithm: sha1WithRSAEncryption
        Issuer: C=US, ST=CA, L=SanFrancisco, O=Fort-Funston, OU=changeme, CN=changeme/name=changeme/emailAddress=mail@host.domain
        Validity
            Not Before: Jul 13 17:07:34 2016 GMT
            Not After : Jul 11 17:07:34 2026 GMT
        Subject: C=US, ST=CA, L=SanFrancisco, O=Fort-Funston, OU=changeme, CN=changeme/name=changeme/emailAddress=mail@host.domain
        Subject Public Key Info:
            Public Key Algorithm: rsaEncryption
                Public-Key: (2048 bit)
                Modulus:
                    00:c7:9c:e4:47:47:17:22:50:25:fd:e7:ef:cc:96:
                    ea:a7:1f:95:28:d6:ab:e9:27:9d:c1:6c:d7:ee:85:
                    9e:98:df:81:69:08:f6:eb:0b:b8:c5:08:cb:87:20:
                    9c:40:ee:75:ba:68:00:fe:41:bd:c3:3c:96:d0:c7:
                    dc:fc:49:51:ce:0d:66:f8:37:02:e7:81:c2:98:57:
                    80:63:90:87:70:ea:64:f0:15:be:40:24:c0:69:ce:
                    d5:13:19:47:fa:7c:d4:b8:6a:36:13:95:78:fe:c6:
                    76:13:fb:ad:1a:c1:66:10:1e:46:84:8a:c8:59:eb:
                    1d:f2:04:52:5a:9c:16:64:bc:8f:df:a3:02:37:a0:
                    5a:df:51:40:54:d4:0f:bd:00:73:16:3c:f2:a0:54:
                    c4:e1:ea:4d:f6:45:6c:89:f4:bd:46:0d:30:6c:ba:
                    80:60:28:72:13:62:3a:2d:77:5c:5e:bf:b9:2f:76:
                    b4:99:cd:b8:19:d1:9f:1a:cb:04:57:be:fc:58:72:
                    1e:69:40:f4:e3:b9:fa:22:c8:75:db:4c:1a:11:04:
                    a0:de:8c:75:52:3e:bb:b7:f0:37:49:70:32:72:3e:
                    ad:b5:b5:cb:db:f4:50:2d:c2:eb:20:8a:f9:fa:74:
                    24:9b:e1:bf:72:0c:e9:4a:f5:f4:1c:cd:0c:fb:49:
                    01:75
                Exponent: 65537 (0x10001)
        X509v3 extensions:
            X509v3 Basic Constraints: 
                CA:FALSE
            Netscape Cert Type: 
                SSL Server
            Netscape Comment: 
                Easy-RSA Generated Server Certificate
            X509v3 Subject Key Identifier: 
                75:B4:9A:07:9D:E2:49:F2:E6:E4:EF:66:59:51:67:15:53:1C:86:4C
            X509v3 Authority Key Identifier: 
                keyid:48:30:85:3C:F7:7D:AF:B3:A0:59:7B:BB:70:C2:F2:DD:F2:39:49:92
                DirName:/C=US/ST=CA/L=SanFrancisco/O=Fort-Funston/OU=changeme/CN=changeme/name=changeme/emailAddress=mail@host.domain
                serial:B7:D6:B0:4B:93:54:63:74

            X509v3 Extended Key Usage: 
                TLS Web Server Authentication
            X509v3 Key Usage: 
                Digital Signature, Key Encipherment
    Signature Algorithm: sha1WithRSAEncryption
         b8:cb:1c:31:c3:0b:ab:a4:08:15:d1:4d:cc:26:45:47:33:08:
         cc:6c:23:59:fc:9c:0e:de:3d:55:82:ca:11:fb:60:e3:5a:05:
         33:7e:c1:2f:c4:f7:0b:08:68:64:f0:89:1f:06:5d:b6:94:19:
         df:8e:20:2f:87:0d:5b:4f:7c:04:ef:f7:28:97:13:62:9b:d6:
         1d:be:0f:35:8b:ee:79:32:20:0b:e7:3a:a6:c1:9f:38:d8:c5:
         ab:85:19:d3:1e:1f:97:34:58:37:52:1a:95:ee:4d:0a:5f:0d:
         b0:9a:62:a8:78:f0:0d:ef:15:9f:b8:a1:85:cc:cb:e4:32:ad:
         94:ee:c2:63:9c:23:57:92:58:34:ed:d5:7f:be:83:de:ca:b5:
         56:83:66:f6:4e:f4:8b:08:da:aa:c5:27:fb:2d:79:bc:ec:65:
         42:66:bf:68:5a:6c:dc:fb:2c:c7:22:c6:4e:87:e6:3d:c7:a5:
         49:fa:1b:ba:6c:26:bc:ef:91:3a:fc:01:13:bb:5c:3a:8c:2d:
         f9:7a:4f:de:bb:22:66:e5:b4:2b:60:02:8d:2f:96:67:55:47:
         23:c6:d0:fa:52:d2:64:2b:d9:37:9d:f6:64:7d:5c:37:6d:e7:
         10:8c:7a:86:b5:44:57:34:f1:5e:5f:c7:e6:93:de:7c:1e:57:
         98:2a:a6:c7
-----BEGIN CERTIFICATE-----
MIIFNjCCBB6gAwIBAgIBATANBgkqhkiG9w0BAQUFADCBojELMAkGA1UEBhMCVVMx
CzAJBgNVBAgTAkNBMRUwEwYDVQQHEwxTYW5GcmFuY2lzY28xFTATBgNVBAoTDEZv
cnQtRnVuc3RvbjERMA8GA1UECxMIY2hhbmdlbWUxETAPBgNVBAMTCGNoYW5nZW1l
MREwDwYDVQQpEwhjaGFuZ2VtZTEfMB0GCSqGSIb3DQEJARYQbWFpbEBob3N0LmRv
bWFpbjAeFw0xNjA3MTMxNzA3MzRaFw0yNjA3MTExNzA3MzRaMIGiMQswCQYDVQQG
EwJVUzELMAkGA1UECBMCQ0ExFTATBgNVBAcTDFNhbkZyYW5jaXNjbzEVMBMGA1UE
ChMMRm9ydC1GdW5zdG9uMREwDwYDVQQLEwhjaGFuZ2VtZTERMA8GA1UEAxMIY2hh
bmdlbWUxETAPBgNVBCkTCGNoYW5nZW1lMR8wHQYJKoZIhvcNAQkBFhBtYWlsQGhv
c3QuZG9tYWluMIIBIjANBgkqhkiG9w0BAQEFAAOCAQ8AMIIBCgKCAQEAx5zkR0cX
IlAl/efvzJbqpx+VKNar6SedwWzX7oWemN+BaQj26wu4xQjLhyCcQO51umgA/kG9
wzyW0Mfc/ElRzg1m+DcC54HCmFeAY5CHcOpk8BW+QCTAac7VExlH+nzUuGo2E5V4
/sZ2E/utGsFmEB5GhIrIWesd8gRSWpwWZLyP36MCN6Ba31FAVNQPvQBzFjzyoFTE
4epN9kVsifS9Rg0wbLqAYChyE2I6LXdcXr+5L3a0mc24GdGfGssEV778WHIeaUD0
47n6Ish120waEQSg3ox1Uj67t/A3SXAycj6ttbXL2/RQLcLrIIr5+nQkm+G/cgzp
SvX0HM0M+0kBdQIDAQABo4IBczCCAW8wCQYDVR0TBAIwADARBglghkgBhvhCAQEE
BAMCBkAwNAYJYIZIAYb4QgENBCcWJUVhc3ktUlNBIEdlbmVyYXRlZCBTZXJ2ZXIg
Q2VydGlmaWNhdGUwHQYDVR0OBBYEFHW0mged4kny5uTvZllRZxVTHIZMMIHXBgNV
HSMEgc8wgcyAFEgwhTz3fa+zoFl7u3DC8t3yOUmSoYGopIGlMIGiMQswCQYDVQQG
EwJVUzELMAkGA1UECBMCQ0ExFTATBgNVBAcTDFNhbkZyYW5jaXNjbzEVMBMGA1UE
ChMMRm9ydC1GdW5zdG9uMREwDwYDVQQLEwhjaGFuZ2VtZTERMA8GA1UEAxMIY2hh
bmdlbWUxETAPBgNVBCkTCGNoYW5nZW1lMR8wHQYJKoZIhvcNAQkBFhBtYWlsQGhv
c3QuZG9tYWluggkAt9awS5NUY3QwEwYDVR0lBAwwCgYIKwYBBQUHAwEwCwYDVR0P
BAQDAgWgMA0GCSqGSIb3DQEBBQUAA4IBAQC4yxwxwwurpAgV0U3MJkVHMwjMbCNZ
/JwO3j1VgsoR+2DjWgUzfsEvxPcLCGhk8IkfBl22lBnfjiAvhw1bT3wE7/colxNi
m9Ydvg81i+55MiAL5zqmwZ842MWrhRnTHh+XNFg3UhqV7k0KXw2wmmKoePAN7xWf
uKGFzMvkMq2U7sJjnCNXklg07dV/voPeyrVWg2b2TvSLCNqqxSf7LXm87GVCZr9o
Wmzc+yzHIsZOh+Y9x6VJ+hu6bCa875E6/AETu1w6jC35ek/euyJm5bQrYAKNL5Zn
VUcjxtD6UtJkK9k3nfZkfVw3becQjHqGtURXNPFeX8fmk958HleYKqbH
-----END CERTIFICATE-----
